; ModuleID = 'source-C-CXX/26/828.c'
source_filename = "source-C-CXX/26/828.c"
target datalayout = "e-m:e-p270:32:32-p271:32:32-p272:64:64-i64:64-f80:128-n8:16:32:64-S128"
target triple = "x86_64-pc-linux-gnu"

@.str = private unnamed_addr constant [3 x i8] c"%d\00", align 1
@.str.1 = private unnamed_addr constant [10 x i8] c"%lf%lf%lf\00", align 1
@.str.2 = private unnamed_addr constant [16 x i8] c"x1=%.5f;x2=%.5f\00", align 1
@.str.3 = private unnamed_addr constant [11 x i8] c"x1=x2=%.5f\00", align 1
@.str.4 = private unnamed_addr constant [28 x i8] c"x1=%.5f+%.5fi;x2=%.5f-%.5fi\00", align 1

; Function Attrs: nofree nounwind sspstrong uwtable
define dso_local void @main() local_unnamed_addr #0 {
  %1 = alloca i32, align 4
  %2 = alloca double, align 8
  %3 = alloca double, align 8
  %4 = alloca double, align 8
  %5 = bitcast i32* %1 to i8*
  call void @llvm.lifetime.start.p0i8(i64 4, i8* nonnull %5) #5
  %6 = bitcast double* %2 to i8*
  call void @llvm.lifetime.start.p0i8(i64 8, i8* nonnull %6) #5
  %7 = bitcast double* %3 to i8*
  call void @llvm.lifetime.start.p0i8(i64 8, i8* nonnull %7) #5
  %8 = bitcast double* %4 to i8*
  call void @llvm.lifetime.start.p0i8(i64 8, i8* nonnull %8) #5
  %9 = call i32 (i8*, ...) @__isoc99_scanf(i8* getelementptr inbounds ([3 x i8], [3 x i8]* @.str, i64 0, i64 0), i32* nonnull %1)
  %10 = load i32, i32* %1, align 4, !tbaa !5
  %11 = icmp sgt i32 %10, 0
  br i1 %11, label %12, label %100

12:                                               ; preds = %0, %95
  %13 = phi i32 [ %96, %95 ], [ 0, %0 ]
  %14 = call i32 (i8*, ...) @__isoc99_scanf(i8* getelementptr inbounds ([10 x i8], [10 x i8]* @.str.1, i64 0, i64 0), double* nonnull %2, double* nonnull %3, double* nonnull %4)
  %15 = load double, double* %3, align 8, !tbaa !9
  %16 = fmul double %15, %15
  %17 = load double, double* %2, align 8, !tbaa !9
  %18 = fmul double %17, 4.000000e+00
  %19 = load double, double* %4, align 8, !tbaa !9
  %20 = fmul double %18, %19
  %21 = fsub double %16, %20
  %22 = fcmp ogt double %21, 0.000000e+00
  br i1 %22, label %23, label %42

23:                                               ; preds = %12
  %24 = call double @sqrt(double %21) #5
  %25 = fsub double %24, %15
  %26 = load double, double* %2, align 8, !tbaa !9
  %27 = fmul double %26, 2.000000e+00
  %28 = fdiv double %25, %27
  %29 = load double, double* %3, align 8, !tbaa !9
  %30 = fneg double %29
  %31 = fmul double %29, %29
  %32 = fmul double %26, 4.000000e+00
  %33 = load double, double* %4, align 8, !tbaa !9
  %34 = fmul double %32, %33
  %35 = fsub double %31, %34
  %36 = call double @sqrt(double %35) #5
  %37 = fsub double %30, %36
  %38 = load double, double* %2, align 8, !tbaa !9
  %39 = fmul double %38, 2.000000e+00
  %40 = fdiv double %37, %39
  %41 = call i32 (i8*, ...) @printf(i8* nonnull dereferenceable(1) getelementptr inbounds ([16 x i8], [16 x i8]* @.str.2, i64 0, i64 0), double %28, double %40)
  br label %95

42:                                               ; preds = %12
  %43 = fcmp olt double %21, 0x3E7AD7F29ABCAF48
  %44 = fcmp ogt double %21, 0xBE7AD7F29ABCAF48
  %45 = and i1 %43, %44
  br i1 %45, label %46, label %51

46:                                               ; preds = %42
  %47 = fneg double %15
  %48 = fmul double %17, 2.000000e+00
  %49 = fdiv double %47, %48
  %50 = call i32 (i8*, ...) @printf(i8* nonnull dereferenceable(1) getelementptr inbounds ([11 x i8], [11 x i8]* @.str.3, i64 0, i64 0), double %49)
  br label %95

51:                                               ; preds = %42
  %52 = fmul double %17, 2.000000e+00
  %53 = fdiv double %15, %52
  %54 = fcmp olt double %53, 0x3E7AD7F29ABCAF48
  %55 = fcmp ogt double %53, 0xBE7AD7F29ABCAF48
  %56 = and i1 %54, %55
  br i1 %56, label %57, label %74

57:                                               ; preds = %51
  %58 = fdiv double 1.000000e+00, %52
  %59 = fsub double %20, %16
  %60 = call double @sqrt(double %59) #5
  %61 = fmul double %58, %60
  %62 = load double, double* %2, align 8, !tbaa !9
  %63 = fmul double %62, 2.000000e+00
  %64 = fdiv double 1.000000e+00, %63
  %65 = fmul double %62, 4.000000e+00
  %66 = load double, double* %4, align 8, !tbaa !9
  %67 = fmul double %65, %66
  %68 = load double, double* %3, align 8, !tbaa !9
  %69 = fmul double %68, %68
  %70 = fsub double %67, %69
  %71 = call double @sqrt(double %70) #5
  %72 = fmul double %64, %71
  %73 = call i32 (i8*, ...) @printf(i8* nonnull dereferenceable(1) getelementptr inbounds ([28 x i8], [28 x i8]* @.str.4, i64 0, i64 0), double 0.000000e+00, double %61, double 0.000000e+00, double %72)
  br label %95

74:                                               ; preds = %51
  %75 = fneg double %15
  %76 = fdiv double %75, %52
  %77 = fdiv double 1.000000e+00, %52
  %78 = fsub double %20, %16
  %79 = call double @sqrt(double %78) #5
  %80 = fmul double %77, %79
  %81 = load double, double* %3, align 8, !tbaa !9
  %82 = fneg double %81
  %83 = load double, double* %2, align 8, !tbaa !9
  %84 = fmul double %83, 2.000000e+00
  %85 = fdiv double %82, %84
  %86 = fdiv double 1.000000e+00, %84
  %87 = fmul double %83, 4.000000e+00
  %88 = load double, double* %4, align 8, !tbaa !9
  %89 = fmul double %87, %88
  %90 = fmul double %81, %81
  %91 = fsub double %89, %90
  %92 = call double @sqrt(double %91) #5
  %93 = fmul double %86, %92
  %94 = call i32 (i8*, ...) @printf(i8* nonnull dereferenceable(1) getelementptr inbounds ([28 x i8], [28 x i8]* @.str.4, i64 0, i64 0), double %76, double %80, double %85, double %93)
  br label %95

95:                                               ; preds = %46, %74, %57, %23
  %96 = add nuw nsw i32 %13, 1
  %97 = call i32 @putchar(i32 10)
  %98 = load i32, i32* %1, align 4, !tbaa !5
  %99 = icmp slt i32 %96, %98
  br i1 %99, label %12, label %100, !llvm.loop !11

100:                                              ; preds = %95, %0
  call void @llvm.lifetime.end.p0i8(i64 8, i8* nonnull %8) #5
  call void @llvm.lifetime.end.p0i8(i64 8, i8* nonnull %7) #5
  call void @llvm.lifetime.end.p0i8(i64 8, i8* nonnull %6) #5
  call void @llvm.lifetime.end.p0i8(i64 4, i8* nonnull %5) #5
  ret void
}

; Function Attrs: argmemonly mustprogress nofree nosync nounwind willreturn
declare void @llvm.lifetime.start.p0i8(i64 immarg, i8* nocapture) #1

; Function Attrs: nofree nounwind
declare noundef i32 @__isoc99_scanf(i8* nocapture noundef readonly, ...) local_unnamed_addr #2

; Function Attrs: nofree nounwind
declare noundef i32 @printf(i8* nocapture noundef readonly, ...) local_unnamed_addr #2

; Function Attrs: mustprogress nofree nounwind willreturn
declare double @sqrt(double) local_unnamed_addr #3

; Function Attrs: argmemonly mustprogress nofree nosync nounwind willreturn
declare void @llvm.lifetime.end.p0i8(i64 immarg, i8* nocapture) #1

; Function Attrs: nofree nounwind
declare noundef i32 @putchar(i32 noundef) local_unnamed_addr #4


!llvm.module.flags = !{!0, !1, !2, !3}
!llvm.ident = !{!4}

!0 = !{i32 1, !"wchar_size", i32 4}
!1 = !{i32 7, !"PIC Level", i32 2}
!2 = !{i32 7, !"PIE Level", i32 2}
!3 = !{i32 7, !"uwtable", i32 1}
!4 = !{!"clang version 13.0.0"}
!5 = !{!6, !6, i64 0}
!6 = !{!"int", !7, i64 0}
!7 = !{!"omnipotent char", !8, i64 0}
!8 = !{!"Simple C/C++ TBAA"}
!9 = !{!10, !10, i64 0}
!10 = !{!"double", !7, i64 0}
!11 = distinct !{!11, !12}
!12 = !{!"llvm.loop.mustprogress"}
